target datalayout = "e-m:e-p270:32:32-p271:32:32-p272:64:64-i64:64-i128:128-f80:128-n8:16:32:64-S128"
target triple = "x86_64-pc-linux-gnu"

%"class.std::basic_ostream" = type { ptr, %"class.std::basic_ios" }
%"class.std::basic_ios" = type { %"class.std::ios_base", ptr, i8, i8, ptr, ptr, ptr, ptr }
%"class.std::ios_base" = type { ptr, i64, i64, i32, i32, i32, ptr, %"struct.std::ios_base::_Words", [8 x %"struct.std::ios_base::_Words"], i32, ptr, %"class.std::locale" }
%"struct.std::ios_base::_Words" = type { ptr, i64 }
%"class.std::locale" = type { ptr }
%"class.std::basic_string_view" = type { i64, ptr }
%"class.std::__cxx11::basic_string" = type { %"struct.std::__cxx11::basic_string<char>::_Alloc_hider", i64, %union.anon }
%"struct.std::__cxx11::basic_string<char>::_Alloc_hider" = type { ptr }
%union.anon = type { i64, [8 x i8] }
%"class.sentencepiece::util::Status" = type { %"class.std::unique_ptr.35" }
%"class.std::unique_ptr.35" = type { %"struct.std::__uniq_ptr_data.36" }
%"struct.std::__uniq_ptr_data.36" = type { %"class.std::__uniq_ptr_impl.37" }
%"class.std::__uniq_ptr_impl.37" = type { %"class.std::tuple.38" }
%"class.std::tuple.38" = type { %"struct.std::_Tuple_impl.39" }
%"struct.std::_Tuple_impl.39" = type { %"struct.std::_Head_base.42" }
%"struct.std::_Head_base.42" = type { ptr }
%"class.sentencepiece::error::Die" = type { i8 }

@_ZSt4cerr = external global %"class.std::basic_ostream", align 8
@.str.1 = private unnamed_addr constant [31 x i8] c"src/sentencepiece_processor.cc\00", align 1
@.str.2 = private unnamed_addr constant [2 x i8] c"(\00", align 1
@.str.3 = private unnamed_addr constant [4 x i8] c") [\00", align 1
@.str.4 = private unnamed_addr constant [13 x i8] c"_status.ok()\00", align 1
@.str.5 = private unnamed_addr constant [3 x i8] c"] \00", align 1

; Function Attrs: mustprogress nounwind uwtable
define linkonce_odr noundef nonnull align 8 dereferenceable(8) ptr @_ZNSt10_Head_baseILm0EPN13sentencepiece4util6Status3RepELb0EE7_M_headERKS5_(ptr noundef nonnull align 8 dereferenceable(8) %0) #5 comdat align 2 {
  %2 = alloca ptr, align 8
  store ptr %0, ptr %2, align 8
  %3 = load ptr, ptr %2, align 8
  %4 = getelementptr inbounds %"struct.std::_Head_base.42", ptr %3, i32 0, i32 0
  ret ptr %4
}

; Function Attrs: mustprogress nounwind uwtable
define linkonce_odr noundef nonnull align 8 dereferenceable(8) ptr @_ZNSt11_Tuple_implILm0EJPN13sentencepiece4util6Status3RepESt14default_deleteIS3_EEE7_M_headERKS7_(ptr noundef nonnull align 8 dereferenceable(8) %0) #5 comdat align 2 {
  %2 = alloca ptr, align 8
  store ptr %0, ptr %2, align 8
  %3 = load ptr, ptr %2, align 8
  %4 = call noundef nonnull align 8 dereferenceable(8) ptr @_ZNSt10_Head_baseILm0EPN13sentencepiece4util6Status3RepELb0EE7_M_headERKS5_(ptr noundef nonnull align 8 dereferenceable(8) %3) #3
  ret ptr %4
}

; Function Attrs: mustprogress nounwind uwtable
define linkonce_odr noundef nonnull align 8 dereferenceable(8) ptr @_ZSt12__get_helperILm0EPN13sentencepiece4util6Status3RepEJSt14default_deleteIS3_EEERKT0_RKSt11_Tuple_implIXT_EJS7_DpT1_EE(ptr noundef nonnull align 8 dereferenceable(8) %0) #5 comdat {
  %2 = alloca ptr, align 8
  store ptr %0, ptr %2, align 8
  %3 = load ptr, ptr %2, align 8
  %4 = call noundef nonnull align 8 dereferenceable(8) ptr @_ZNSt11_Tuple_implILm0EJPN13sentencepiece4util6Status3RepESt14default_deleteIS3_EEE7_M_headERKS7_(ptr noundef nonnull align 8 dereferenceable(8) %3) #3
  ret ptr %4
}

; Function Attrs: mustprogress nounwind uwtable
define linkonce_odr noundef nonnull align 8 dereferenceable(8) ptr @_ZSt3getILm0EJPN13sentencepiece4util6Status3RepESt14default_deleteIS3_EEERKNSt13tuple_elementIXT_ESt5tupleIJDpT0_EEE4typeERKSB_(ptr noundef nonnull align 8 dereferenceable(8) %0) #5 comdat {
  %2 = alloca ptr, align 8
  store ptr %0, ptr %2, align 8
  %3 = load ptr, ptr %2, align 8
  %4 = call noundef nonnull align 8 dereferenceable(8) ptr @_ZSt12__get_helperILm0EPN13sentencepiece4util6Status3RepEJSt14default_deleteIS3_EEERKT0_RKSt11_Tuple_implIXT_EJS7_DpT1_EE(ptr noundef nonnull align 8 dereferenceable(8) %3) #3
  ret ptr %4
}

; Function Attrs: mustprogress nounwind uwtable
define linkonce_odr noundef ptr @_ZNKSt15__uniq_ptr_implIN13sentencepiece4util6Status3RepESt14default_deleteIS3_EE6_M_ptrEv(ptr noundef nonnull align 8 dereferenceable(8) %0) #5 comdat align 2 {
  %2 = alloca ptr, align 8
  store ptr %0, ptr %2, align 8
  %3 = load ptr, ptr %2, align 8
  %4 = getelementptr inbounds %"class.std::__uniq_ptr_impl.37", ptr %3, i32 0, i32 0
  %5 = call noundef nonnull align 8 dereferenceable(8) ptr @_ZSt3getILm0EJPN13sentencepiece4util6Status3RepESt14default_deleteIS3_EEERKNSt13tuple_elementIXT_ESt5tupleIJDpT0_EEE4typeERKSB_(ptr noundef nonnull align 8 dereferenceable(8) %4) #3
  %6 = load ptr, ptr %5, align 8
  ret ptr %6
}

; Function Attrs: mustprogress nounwind uwtable
define linkonce_odr noundef ptr @_ZNKSt10unique_ptrIN13sentencepiece4util6Status3RepESt14default_deleteIS3_EE3getEv(ptr noundef nonnull align 8 dereferenceable(8) %0) #5 comdat align 2 {
  %2 = alloca ptr, align 8
  store ptr %0, ptr %2, align 8
  %3 = load ptr, ptr %2, align 8
  %4 = getelementptr inbounds %"class.std::unique_ptr.35", ptr %3, i32 0, i32 0
  %5 = call noundef ptr @_ZNKSt15__uniq_ptr_implIN13sentencepiece4util6Status3RepESt14default_deleteIS3_EE6_M_ptrEv(ptr noundef nonnull align 8 dereferenceable(8) %4) #3
  ret ptr %5
}

; Function Attrs: mustprogress nounwind uwtable
define linkonce_odr noundef zeroext i1 @_ZNKSt10unique_ptrIN13sentencepiece4util6Status3RepESt14default_deleteIS3_EEcvbEv(ptr noundef nonnull align 8 dereferenceable(8) %0) #5 comdat align 2 {
  %2 = alloca ptr, align 8
  store ptr %0, ptr %2, align 8
  %3 = load ptr, ptr %2, align 8
  %4 = call noundef ptr @_ZNKSt10unique_ptrIN13sentencepiece4util6Status3RepESt14default_deleteIS3_EE3getEv(ptr noundef nonnull align 8 dereferenceable(8) %3) #3
  %5 = icmp eq ptr %4, null
  %6 = select i1 %5, i1 false, i1 true
  ret i1 %6
}

; Function Attrs: mustprogress nounwind uwtable
define linkonce_odr noundef zeroext i1 @_ZSteqIN13sentencepiece4util6Status3RepESt14default_deleteIS3_EEbRKSt10unique_ptrIT_T0_EDn(ptr noundef nonnull align 8 dereferenceable(8) %0, ptr %1) #5 comdat {
  %3 = alloca ptr, align 8
  %4 = alloca ptr, align 8
  store ptr %0, ptr %3, align 8
  store ptr %1, ptr %4, align 8
  %5 = load ptr, ptr %3, align 8
  %6 = call noundef zeroext i1 @_ZNKSt10unique_ptrIN13sentencepiece4util6Status3RepESt14default_deleteIS3_EEcvbEv(ptr noundef nonnull align 8 dereferenceable(8) %5) #3
  %7 = xor i1 %6, true
  ret i1 %7
}

; Function Attrs: mustprogress nounwind uwtable
define linkonce_odr noundef i32 @_ZN13sentencepiece5error3DieanERSo(ptr noundef nonnull align 1 dereferenceable(1) %0, ptr noundef nonnull align 8 dereferenceable(8) %1) #5 comdat align 2 {
  %3 = alloca ptr, align 8
  %4 = alloca ptr, align 8
  store ptr %0, ptr %3, align 8
  store ptr %1, ptr %4, align 8
  ret i32 0
}

; Function Attrs: mustprogress nounwind uwtable
define linkonce_odr noundef ptr @_ZN13sentencepiece7logging8BaseNameEPKc(ptr noundef %0) #5 comdat {
  %2 = alloca ptr, align 8
  %3 = alloca ptr, align 8
  %4 = alloca ptr, align 8
  store ptr %0, ptr %3, align 8
  %5 = load ptr, ptr %3, align 8
  %6 = call noundef ptr @strrchr(ptr noundef %5, i32 noundef 47) #21
  store ptr %6, ptr %4, align 8
  %7 = load ptr, ptr %4, align 8
  %8 = icmp eq ptr %7, null
  br i1 %8, label %9, label %11

9:                                                ; preds = %1
  %10 = load ptr, ptr %3, align 8
  store ptr %10, ptr %2, align 8
  br label %14

11:                                               ; preds = %1
  %12 = load ptr, ptr %4, align 8
  %13 = getelementptr inbounds i8, ptr %12, i64 1
  store ptr %13, ptr %2, align 8
  br label %14

14:                                               ; preds = %11, %9
  %15 = load ptr, ptr %2, align 8
  ret ptr %15
}

; Function Attrs: mustprogress nounwind uwtable
define linkonce_odr void @_ZN13sentencepiece5error3DieC2Eb(ptr noundef nonnull align 1 dereferenceable(1) %0, i1 noundef zeroext %1) unnamed_addr #5 comdat align 2 {
  %3 = alloca ptr, align 8
  %4 = alloca i8, align 1
  store ptr %0, ptr %3, align 8
  %5 = zext i1 %1 to i8
  store i8 %5, ptr %4, align 1
  %6 = load ptr, ptr %3, align 8
  %7 = getelementptr inbounds %"class.sentencepiece::error::Die", ptr %6, i32 0, i32 0
  %8 = load i8, ptr %4, align 1
  %9 = trunc i8 %8 to i1
  %10 = zext i1 %9 to i8
  store i8 %10, ptr %7, align 1
  ret void
}

; Function Attrs: mustprogress nounwind uwtable
define linkonce_odr noundef zeroext i1 @_ZNK13sentencepiece4util6Status2okEv(ptr noundef nonnull align 8 dereferenceable(8) %0) #5 comdat align 2 {
  %2 = alloca ptr, align 8
  store ptr %0, ptr %2, align 8
  %3 = load ptr, ptr %2, align 8
  %4 = getelementptr inbounds %"class.sentencepiece::util::Status", ptr %3, i32 0, i32 0
  %5 = call noundef zeroext i1 @_ZSteqIN13sentencepiece4util6Status3RepESt14default_deleteIS3_EEbRKSt10unique_ptrIT_T0_EDn(ptr noundef nonnull align 8 dereferenceable(8) %4, ptr null) #3
  ret i1 %5
}

; Function Attrs: mustprogress uwtable
define void @_ZN13sentencepiece22SentencePieceProcessor9LoadOrDieESt17basic_string_viewIcSt11char_traitsIcEE(ptr noundef nonnull align 8 dereferenceable(88) %0, i64 %1, ptr %2) unnamed_addr #4 align 2 personality ptr @__gxx_personality_v0 {
  %4 = alloca %"class.std::basic_string_view", align 8
  %5 = alloca ptr, align 8
  %6 = alloca %"class.sentencepiece::util::Status", align 8
  %7 = alloca %"class.std::basic_string_view", align 8
  %8 = alloca ptr, align 8
  %9 = alloca i32, align 4
  %10 = alloca %"class.sentencepiece::error::Die", align 1
  %11 = alloca i1, align 1
  %12 = alloca %"class.std::__cxx11::basic_string", align 8
  %13 = alloca i1, align 1
  %14 = getelementptr inbounds { i64, ptr }, ptr %4, i32 0, i32 0
  store i64 %1, ptr %14, align 8
  %15 = getelementptr inbounds { i64, ptr }, ptr %4, i32 0, i32 1
  store ptr %2, ptr %15, align 8
  store ptr %0, ptr %5, align 8
  %16 = load ptr, ptr %5, align 8
  br label %17

17:                                               ; preds = %3
  call void @llvm.memcpy.p0.p0.i64(ptr align 8 %7, ptr align 8 %4, i64 16, i1 false)
  %18 = getelementptr inbounds { i64, ptr }, ptr %7, i32 0, i32 0
  %19 = load i64, ptr %18, align 8
  %20 = getelementptr inbounds { i64, ptr }, ptr %7, i32 0, i32 1
  %21 = load ptr, ptr %20, align 8
  %22 = load ptr, ptr %16, align 8
  %23 = getelementptr inbounds ptr, ptr %22, i64 2
  %24 = load ptr, ptr %23, align 8
  call void %24(ptr dead_on_unwind writable sret(%"class.sentencepiece::util::Status") align 8 %6, ptr noundef nonnull align 8 dereferenceable(88) %16, i64 %19, ptr %21)
  store i1 false, ptr %11, align 1
  store i1 false, ptr %13, align 1
  %25 = invoke noundef zeroext i1 @_ZNK13sentencepiece4util6Status2okEv(ptr noundef nonnull align 8 dereferenceable(8) %6)
          to label %26 unwind label %57

26:                                               ; preds = %17
  br i1 %25, label %27, label %28

27:                                               ; preds = %26
  br label %49

28:                                               ; preds = %26
  invoke void @_ZN13sentencepiece5error3DieC2Eb(ptr noundef nonnull align 1 dereferenceable(1) %10, i1 noundef zeroext true)
          to label %29 unwind label %57

29:                                               ; preds = %28
  store i1 true, ptr %11, align 1
  %30 = invoke noundef ptr @_ZN13sentencepiece7logging8BaseNameEPKc(ptr noundef @.str.1)
          to label %31 unwind label %61

31:                                               ; preds = %29
  %32 = invoke noundef nonnull align 8 dereferenceable(8) ptr @_ZStlsISt11char_traitsIcEERSt13basic_ostreamIcT_ES5_PKc(ptr noundef nonnull align 8 dereferenceable(8) @_ZSt4cerr, ptr noundef %30)
          to label %33 unwind label %61

33:                                               ; preds = %31
  %34 = invoke noundef nonnull align 8 dereferenceable(8) ptr @_ZStlsISt11char_traitsIcEERSt13basic_ostreamIcT_ES5_PKc(ptr noundef nonnull align 8 dereferenceable(8) %32, ptr noundef @.str.2)
          to label %35 unwind label %61

35:                                               ; preds = %33
  %36 = invoke noundef nonnull align 8 dereferenceable(8) ptr @_ZNSolsEi(ptr noundef nonnull align 8 dereferenceable(8) %34, i32 noundef 225)
          to label %37 unwind label %61

37:                                               ; preds = %35
  %38 = invoke noundef nonnull align 8 dereferenceable(8) ptr @_ZStlsISt11char_traitsIcEERSt13basic_ostreamIcT_ES5_PKc(ptr noundef nonnull align 8 dereferenceable(8) %36, ptr noundef @.str.3)
          to label %39 unwind label %61

39:                                               ; preds = %37
  %40 = invoke noundef nonnull align 8 dereferenceable(8) ptr @_ZStlsISt11char_traitsIcEERSt13basic_ostreamIcT_ES5_PKc(ptr noundef nonnull align 8 dereferenceable(8) %38, ptr noundef @.str.4)
          to label %41 unwind label %61

41:                                               ; preds = %39
  %42 = invoke noundef nonnull align 8 dereferenceable(8) ptr @_ZStlsISt11char_traitsIcEERSt13basic_ostreamIcT_ES5_PKc(ptr noundef nonnull align 8 dereferenceable(8) %40, ptr noundef @.str.5)
          to label %43 unwind label %61

43:                                               ; preds = %41
  invoke void @_ZNK13sentencepiece4util6Status8ToStringB5cxx11Ev(ptr dead_on_unwind writable sret(%"class.std::__cxx11::basic_string") align 8 %12, ptr noundef nonnull align 8 dereferenceable(8) %6)
          to label %44 unwind label %61

44:                                               ; preds = %43
  store i1 true, ptr %13, align 1
  %45 = invoke noundef nonnull align 8 dereferenceable(8) ptr @_ZStlsIcSt11char_traitsIcESaIcEERSt13basic_ostreamIT_T0_ES7_RKNSt7__cxx1112basic_stringIS4_S5_T1_EE(ptr noundef nonnull align 8 dereferenceable(8) %42, ptr noundef nonnull align 8 dereferenceable(32) %12)
          to label %46 unwind label %65

46:                                               ; preds = %44
  %47 = invoke noundef i32 @_ZN13sentencepiece5error3DieanERSo(ptr noundef nonnull align 1 dereferenceable(1) %10, ptr noundef nonnull align 8 dereferenceable(8) %45)
          to label %48 unwind label %65

48:                                               ; preds = %46
  br label %49

49:                                               ; preds = %48, %27
  %50 = load i1, ptr %13, align 1
  br i1 %50, label %51, label %52

51:                                               ; preds = %49
  call void @_ZNSt7__cxx1112basic_stringIcSt11char_traitsIcESaIcEED1Ev(ptr noundef nonnull align 8 dereferenceable(32) %12) #3
  br label %52

52:                                               ; preds = %51, %49
  %53 = load i1, ptr %11, align 1
  br i1 %53, label %54, label %55

54:                                               ; preds = %52
  call void @_ZN13sentencepiece5error3DieD2Ev(ptr noundef nonnull align 1 dereferenceable(1) %10) #3
  br label %55

55:                                               ; preds = %54, %52
  call void @_ZN13sentencepiece4util6StatusD1Ev(ptr noundef nonnull align 8 dereferenceable(8) %6) #3
  br label %56

56:                                               ; preds = %55
  ret void

57:                                               ; preds = %28, %17
  %58 = landingpad { ptr, i32 }
          cleanup
  %59 = extractvalue { ptr, i32 } %58, 0
  store ptr %59, ptr %8, align 8
  %60 = extractvalue { ptr, i32 } %58, 1
  store i32 %60, ptr %9, align 4
  br label %76

61:                                               ; preds = %43, %41, %39, %37, %35, %33, %31, %29
  %62 = landingpad { ptr, i32 }
          cleanup
  %63 = extractvalue { ptr, i32 } %62, 0
  store ptr %63, ptr %8, align 8
  %64 = extractvalue { ptr, i32 } %62, 1
  store i32 %64, ptr %9, align 4
  br label %72

65:                                               ; preds = %46, %44
  %66 = landingpad { ptr, i32 }
          cleanup
  %67 = extractvalue { ptr, i32 } %66, 0
  store ptr %67, ptr %8, align 8
  %68 = extractvalue { ptr, i32 } %66, 1
  store i32 %68, ptr %9, align 4
  %69 = load i1, ptr %13, align 1
  br i1 %69, label %70, label %71

70:                                               ; preds = %65
  call void @_ZNSt7__cxx1112basic_stringIcSt11char_traitsIcESaIcEED1Ev(ptr noundef nonnull align 8 dereferenceable(32) %12) #3
  br label %71

71:                                               ; preds = %70, %65
  br label %72

72:                                               ; preds = %71, %61
  %73 = load i1, ptr %11, align 1
  br i1 %73, label %74, label %75

74:                                               ; preds = %72
  call void @_ZN13sentencepiece5error3DieD2Ev(ptr noundef nonnull align 1 dereferenceable(1) %10) #3
  br label %75

75:                                               ; preds = %74, %72
  br label %76

76:                                               ; preds = %75, %57
  call void @_ZN13sentencepiece4util6StatusD1Ev(ptr noundef nonnull align 8 dereferenceable(8) %6) #3
  br label %77

77:                                               ; preds = %76
  %78 = load ptr, ptr %8, align 8
  %79 = load i32, ptr %9, align 4
  %80 = insertvalue { ptr, i32 } poison, ptr %78, 0
  %81 = insertvalue { ptr, i32 } %80, i32 %79, 1
  resume { ptr, i32 } %81
}