; Function Attrs: mustprogress uwtable
define void @_ZN13sentencepiece22SentencePieceProcessor9LoadOrDieESt17basic_string_viewIcSt11char_traitsIcEE(ptr noundef nonnull align 8 dereferenceable(88) %0, i64 %1, ptr %2) unnamed_addr #3 align 2 personality ptr @__gxx_personality_v0 {
  %4 = alloca %"class.sentencepiece::util::Status", align 8
  %5 = alloca %"class.sentencepiece::error::Die", align 1
  %6 = alloca %"class.std::__cxx11::basic_string", align 8
  %7 = load ptr, ptr %0, align 8
  %8 = getelementptr inbounds i8, ptr %7, i64 16
  %9 = load ptr, ptr %8, align 8
  call void %9(ptr dead_on_unwind nonnull writable sret(%"class.sentencepiece::util::Status") align 8 %4, ptr noundef nonnull align 8 dereferenceable(88) %0, i64 %1, ptr %2)
  %10 = load ptr, ptr %4, align 8
  %.not.i.i = icmp eq ptr %10, null
  br i1 %.not.i.i, label %.critedge12, label %11

11:                                               ; preds = %3
  store i8 1, ptr %5, align 1
  %12 = invoke noundef nonnull align 8 dereferenceable(8) ptr @_ZStlsISt11char_traitsIcEERSt13basic_ostreamIcT_ES5_PKc(ptr noundef nonnull align 8 dereferenceable(8) @_ZSt4cerr, ptr noundef nonnull getelementptr inbounds (i8, ptr @.str.1, i64 4))
          to label %13 unwind label %31

13:                                               ; preds = %11
  %14 = invoke noundef nonnull align 8 dereferenceable(8) ptr @_ZStlsISt11char_traitsIcEERSt13basic_ostreamIcT_ES5_PKc(ptr noundef nonnull align 8 dereferenceable(8) %12, ptr noundef nonnull @.str.2)
          to label %15 unwind label %31

15:                                               ; preds = %13
  %16 = invoke noundef nonnull align 8 dereferenceable(8) ptr @_ZNSolsEi(ptr noundef nonnull align 8 dereferenceable(8) %14, i32 noundef 225)
          to label %17 unwind label %31

17:                                               ; preds = %15
  %18 = invoke noundef nonnull align 8 dereferenceable(8) ptr @_ZStlsISt11char_traitsIcEERSt13basic_ostreamIcT_ES5_PKc(ptr noundef nonnull align 8 dereferenceable(8) %16, ptr noundef nonnull @.str.3)
          to label %19 unwind label %31

19:                                               ; preds = %17
  %20 = invoke noundef nonnull align 8 dereferenceable(8) ptr @_ZStlsISt11char_traitsIcEERSt13basic_ostreamIcT_ES5_PKc(ptr noundef nonnull align 8 dereferenceable(8) %18, ptr noundef nonnull @.str.4)
          to label %21 unwind label %31

21:                                               ; preds = %19
  %22 = invoke noundef nonnull align 8 dereferenceable(8) ptr @_ZStlsISt11char_traitsIcEERSt13basic_ostreamIcT_ES5_PKc(ptr noundef nonnull align 8 dereferenceable(8) %20, ptr noundef nonnull @.str.5)
          to label %23 unwind label %31

23:                                               ; preds = %21
  invoke void @_ZNK13sentencepiece4util6Status8ToStringB5cxx11Ev(ptr dead_on_unwind nonnull writable sret(%"class.std::__cxx11::basic_string") align 8 %6, ptr noundef nonnull align 8 dereferenceable(8) %4)
          to label %24 unwind label %31

24:                                               ; preds = %23
  %25 = invoke noundef nonnull align 8 dereferenceable(8) ptr @_ZStlsIcSt11char_traitsIcESaIcEERSt13basic_ostreamIT_T0_ES7_RKNSt7__cxx1112basic_stringIS4_S5_T1_EE(ptr noundef nonnull align 8 dereferenceable(8) %22, ptr noundef nonnull align 8 dereferenceable(32) %6)
          to label %.critedge unwind label %33

.critedge:                                        ; preds = %24
  call void @_ZNSt7__cxx1112basic_stringIcSt11char_traitsIcESaIcEED1Ev(ptr noundef nonnull align 8 dereferenceable(32) %6) #24
  %26 = invoke noundef nonnull align 8 dereferenceable(8) ptr @_ZNSolsEPFRSoS_E(ptr noundef nonnull align 8 dereferenceable(8) @_ZSt4cerr, ptr noundef nonnull @_ZSt4endlIcSt11char_traitsIcEERSt13basic_ostreamIT_T0_ES6_)
          to label %27 unwind label %28

27:                                               ; preds = %.critedge
  invoke void @_ZN13sentencepiece5error5AbortEv()
          to label %.critedge12 unwind label %28

28:                                               ; preds = %27, %.critedge
  %29 = landingpad { ptr, i32 }
          catch ptr null
  %30 = extractvalue { ptr, i32 } %29, 0
  call void @__clang_call_terminate(ptr %30) #28
  unreachable

.critedge12:                                      ; preds = %27, %3
  call void @_ZN13sentencepiece4util6StatusD1Ev(ptr noundef nonnull align 8 dereferenceable(8) %4) #24
  ret void

31:                                               ; preds = %23, %21, %19, %17, %15, %13, %11
  %32 = landingpad { ptr, i32 }
          cleanup
  br label %35

33:                                               ; preds = %24
  %34 = landingpad { ptr, i32 }
          cleanup
  call void @_ZNSt7__cxx1112basic_stringIcSt11char_traitsIcESaIcEED1Ev(ptr noundef nonnull align 8 dereferenceable(32) %6) #24
  br label %35

35:                                               ; preds = %31, %33
  %.pn = phi { ptr, i32 } [ %34, %33 ], [ %32, %31 ]
  call void @_ZN13sentencepiece5error3DieD2Ev(ptr noundef nonnull align 1 dereferenceable(1) %5) #24
  call void @_ZN13sentencepiece4util6StatusD1Ev(ptr noundef nonnull align 8 dereferenceable(8) %4) #24
  resume { ptr, i32 } %.pn
}